Certificate:
    Data:
        Version: 3 (0x2)
        Serial Number: 2 (0x2)
        Signature Algorithm: sha256WithRSAEncryption
        Issuer: C=CN, ST=GD, L=GZ, O=LX, OU=Dev, CN=maXuFeng/emailAddress=524915379@qq.com
        Validity
            Not Before: Jul 16 14:33:44 2023 GMT
            Not After : Jul 15 14:33:44 2024 GMT
        Subject: C=CN, ST=GD, O=LX, OU=Dev, CN=fireman34/emailAddress=524915379@qq.com
        Subject Public Key Info:
            Public Key Algorithm: rsaEncryption
                RSA Public-Key: (2048 bit)
                Modulus:
                    00:f4:22:e8:24:46:ba:f3:7a:21:81:ea:c9:af:54:
                    f8:59:d8:a5:8e:27:0f:c5:3f:a5:5e:87:3e:c0:f3:
                    50:60:86:10:20:b3:45:0b:37:17:c8:d8:c6:6a:0b:
                    90:49:73:bf:f6:86:35:8f:4f:23:29:b2:e0:09:d9:
                    1b:df:45:01:99:8a:48:b7:77:4d:7e:4e:9b:ea:bc:
                    d0:6d:7a:c8:6b:81:c8:46:1d:97:21:07:c5:c3:4f:
                    8c:c4:fc:61:0d:6c:d4:67:65:de:05:3a:a8:c3:50:
                    ba:78:4b:ff:a9:09:b2:5a:bc:03:a8:ed:14:7d:20:
                    75:06:d4:f6:6d:8e:ef:10:ac:f5:e3:dc:28:7c:3f:
                    b6:a7:db:b3:cf:d8:04:24:cf:90:87:4e:57:bd:a8:
                    5f:35:f9:6a:3c:0f:27:5d:ca:5f:29:e1:3b:2a:87:
                    39:f4:2e:64:f1:06:b1:63:de:16:1d:29:60:ec:68:
                    15:f2:58:9a:20:5a:7f:89:c7:f7:c6:25:fa:ae:2d:
                    a2:30:84:ad:e1:41:27:0f:c7:b5:ab:2f:01:56:ca:
                    2a:bb:4c:0e:64:6d:ee:d0:3f:a2:4b:85:6f:0c:c8:
                    81:fa:97:b2:1f:f4:17:0a:9b:62:0e:bd:8f:5c:98:
                    12:50:b7:50:95:55:c0:ae:dd:9a:4b:44:38:83:6c:
                    7d:d9
                Exponent: 65537 (0x10001)
        X509v3 extensions:
            X509v3 Basic Constraints: 
                CA:FALSE
            Netscape Comment: 
                OpenSSL Generated Certificate
            X509v3 Subject Key Identifier: 
                8B:80:83:83:44:A7:24:32:39:FC:84:00:15:E5:34:82:3F:18:FC:A0
            X509v3 Authority Key Identifier: 
                keyid:82:12:4E:1A:9B:C0:37:F4:8E:B3:15:FA:D5:19:98:7E:79:D8:F8:DA

    Signature Algorithm: sha256WithRSAEncryption
         11:7c:e3:1b:cb:4a:7e:b3:a1:f1:e1:b0:44:12:3d:70:ee:16:
         8c:9a:95:b3:42:f9:7d:6d:75:17:41:95:3f:4a:fb:b1:c1:9a:
         2a:f1:e8:1c:0d:56:61:36:58:d7:c5:0a:7d:e3:12:5f:30:ff:
         b0:1f:5b:1f:4b:76:31:b5:fe:01:00:fa:b2:a9:1c:15:25:24:
         b2:c1:bf:1c:68:c3:6e:7c:ab:c5:b4:7b:e4:17:38:cd:3c:9a:
         f2:eb:c2:f6:d2:eb:03:32:93:70:50:2f:1f:5c:73:1b:22:ff:
         3b:50:10:60:e6:5c:36:1f:57:4e:01:e0:db:46:f5:34:66:80:
         4f:62:c6:63:5f:1c:81:e9:38:3e:05:dd:ae:8b:86:ef:89:89:
         2b:bd:5c:a7:87:a3:d6:7e:ff:04:ea:c2:ed:38:5d:a8:bc:bc:
         4b:d5:89:c2:93:40:d0:97:7b:22:d1:57:bd:9a:53:24:91:cd:
         a8:d3:95:2b:31:8d:a3:d6:c7:9e:aa:bc:f7:0b:e8:f9:88:a2:
         dc:3d:29:3c:ce:bd:1c:f8:7e:17:44:6f:ec:56:9e:0f:a9:4c:
         c8:ad:e2:98:d3:94:23:52:6e:e3:69:3a:08:e9:73:8e:51:fc:
         3f:3d:3b:6a:37:eb:d3:33:88:36:8a:c2:87:42:3c:b4:e4:65:
         8a:9c:60:57
-----BEGIN CERTIFICATE-----
MIID1jCCAr6gAwIBAgIBAjANBgkqhkiG9w0BAQsFADB2MQswCQYDVQQGEwJDTjEL
MAkGA1UECAwCR0QxCzAJBgNVBAcMAkdaMQswCQYDVQQKDAJMWDEMMAoGA1UECwwD
RGV2MREwDwYDVQQDDAhtYVh1RmVuZzEfMB0GCSqGSIb3DQEJARYQNTI0OTE1Mzc5
QHFxLmNvbTAeFw0yMzA3MTYxNDMzNDRaFw0yNDA3MTUxNDMzNDRaMGoxCzAJBgNV
BAYTAkNOMQswCQYDVQQIDAJHRDELMAkGA1UECgwCTFgxDDAKBgNVBAsMA0RldjES
MBAGA1UEAwwJZmlyZW1hbjM0MR8wHQYJKoZIhvcNAQkBFhA1MjQ5MTUzNzlAcXEu
Y29tMIIBIjANBgkqhkiG9w0BAQEFAAOCAQ8AMIIBCgKCAQEA9CLoJEa683ohgerJ
r1T4WdiljicPxT+lXoc+wPNQYIYQILNFCzcXyNjGaguQSXO/9oY1j08jKbLgCdkb
30UBmYpIt3dNfk6b6rzQbXrIa4HIRh2XIQfFw0+MxPxhDWzUZ2XeBTqow1C6eEv/
qQmyWrwDqO0UfSB1BtT2bY7vEKz149wofD+2p9uzz9gEJM+Qh05XvahfNflqPA8n
XcpfKeE7Koc59C5k8QaxY94WHSlg7GgV8liaIFp/icf3xiX6ri2iMISt4UEnD8e1
qy8BVsoqu0wOZG3u0D+iS4VvDMiB+peyH/QXCptiDr2PXJgSULdQlVXArt2aS0Q4
g2x92QIDAQABo3sweTAJBgNVHRMEAjAAMCwGCWCGSAGG+EIBDQQfFh1PcGVuU1NM
IEdlbmVyYXRlZCBDZXJ0aWZpY2F0ZTAdBgNVHQ4EFgQUi4CDg0SnJDI5/IQAFeU0
gj8Y/KAwHwYDVR0jBBgwFoAUghJOGpvAN/SOsxX61RmYfnnY+NowDQYJKoZIhvcN
AQELBQADggEBABF84xvLSn6zofHhsEQSPXDuFoyalbNC+X1tdRdBlT9K+7HBmirx
6BwNVmE2WNfFCn3jEl8w/7AfWx9LdjG1/gEA+rKpHBUlJLLBvxxow258q8W0e+QX
OM08mvLrwvbS6wMyk3BQLx9ccxsi/ztQEGDmXDYfV04B4NtG9TRmgE9ixmNfHIHp
OD4F3a6Lhu+JiSu9XKeHo9Z+/wTqwu04Xai8vEvVicKTQNCXeyLRV72aUySRzajT
lSsxjaPWx56qvPcL6PmIotw9KTzOvRz4fhdEb+xWng+pTMit4pjTlCNSbuNpOgjp
c45R/D89O2o369MziDaKwodCPLTkZYqcYFc=
-----END CERTIFICATE-----
