Certificate:
    Data:
        Version: 3 (0x2)
        Serial Number: 3 (0x3)
        Signature Algorithm: sha256WithRSAEncryption
        Issuer: C=CN, ST=GD, L=GZ, O=LX, OU=Dev, CN=maXuFeng/emailAddress=524915379@qq.com
        Validity
            Not Before: Jul 17 09:22:07 2023 GMT
            Not After : Jul 16 09:22:07 2024 GMT
        Subject: C=CN, ST=GD, O=LX, OU=Dev, CN=b2c-h5.wegocare.cn/emailAddress=524915379@qq.com
        Subject Public Key Info:
            Public Key Algorithm: rsaEncryption
                RSA Public-Key: (2048 bit)
                Modulus:
                    00:f1:a0:30:dc:bb:a3:f5:3c:95:9a:41:dc:84:30:
                    b0:48:03:48:23:83:0a:d7:88:ed:c2:9e:24:a8:12:
                    02:7d:8b:5d:7a:7d:24:4f:b1:b3:b3:83:b6:c5:60:
                    d2:c7:fa:84:b7:1e:ca:ac:4a:01:ef:32:73:8e:89:
                    fd:0c:5e:7f:b3:4e:61:5e:a9:43:fb:71:23:5f:6a:
                    01:51:d3:f8:a5:1e:bf:16:d9:40:96:35:7e:76:6d:
                    74:22:4d:51:65:3c:c2:3d:c8:53:bc:79:bb:b4:85:
                    bb:d5:95:ce:35:9e:00:47:e7:a4:d5:41:39:cb:76:
                    f7:7b:96:ad:78:a0:77:52:51:6c:52:41:34:2c:31:
                    9f:ec:25:6f:90:b6:5f:b8:c1:86:f7:43:e2:da:a0:
                    6b:de:41:b0:78:46:00:54:76:e1:09:44:e9:17:c7:
                    ae:13:f3:de:53:e6:52:0f:d1:aa:2a:5b:6e:85:b2:
                    b7:ee:af:61:9a:d0:0b:7c:72:a1:c1:21:d9:7e:18:
                    d9:d2:88:12:5d:50:21:4a:17:98:59:72:4c:b3:f1:
                    43:45:8e:41:df:ee:aa:3f:53:18:12:93:64:cc:bf:
                    28:de:9c:ab:ee:e4:1f:b2:1e:ce:d5:b1:52:3e:10:
                    cb:5a:7c:0c:7d:6a:ff:1a:ad:80:51:04:df:b6:5d:
                    5d:cb
                Exponent: 65537 (0x10001)
        X509v3 extensions:
            X509v3 Basic Constraints: 
                CA:FALSE
            Netscape Comment: 
                OpenSSL Generated Certificate
            X509v3 Subject Key Identifier: 
                C1:66:57:0B:1E:A0:85:3A:54:C1:EC:3D:17:B3:D8:2C:0A:3F:03:73
            X509v3 Authority Key Identifier: 
                keyid:82:12:4E:1A:9B:C0:37:F4:8E:B3:15:FA:D5:19:98:7E:79:D8:F8:DA

    Signature Algorithm: sha256WithRSAEncryption
         53:52:a1:06:54:35:cb:6b:af:1f:b8:d6:ea:59:ca:e5:53:3a:
         89:2e:3f:b1:d6:fb:d8:7a:c6:3c:23:1e:04:d5:d8:41:82:5c:
         79:63:d7:f5:a1:d8:b6:85:d8:10:55:fb:03:08:84:c4:5f:06:
         93:92:c6:7a:58:85:02:3c:79:bb:75:8d:dd:65:40:4d:36:64:
         8d:5b:b3:fe:4a:f5:ee:48:46:1d:e5:d1:3b:2d:47:97:7a:7c:
         f4:a4:28:4e:c9:b1:ce:34:38:a2:75:3b:19:59:14:e1:f4:43:
         99:90:13:8e:6d:d1:7a:f3:33:e4:c3:61:4b:a0:30:b5:5c:74:
         71:97:31:5a:d6:43:73:aa:52:43:c0:38:6b:f9:3b:6c:ef:69:
         ad:f2:20:73:2a:0b:7e:56:ab:0d:4d:22:ac:dc:04:1b:c2:ce:
         ca:30:1d:1a:4a:52:27:5f:45:2a:02:9f:22:bf:a1:9a:fb:10:
         09:74:db:0f:e9:66:03:98:28:5d:45:52:f6:5f:15:fb:e0:11:
         ec:83:c4:f8:95:b5:2e:50:d6:ca:39:d6:31:fa:6c:fd:9f:cb:
         5a:73:a4:f9:df:e0:b6:f7:49:d2:0d:d9:49:44:f5:0c:49:a0:
         a3:1a:1a:b0:04:ea:43:25:86:9c:a9:14:69:bf:21:27:19:d6:
         b6:22:0c:5a
-----BEGIN CERTIFICATE-----
MIID3zCCAsegAwIBAgIBAzANBgkqhkiG9w0BAQsFADB2MQswCQYDVQQGEwJDTjEL
MAkGA1UECAwCR0QxCzAJBgNVBAcMAkdaMQswCQYDVQQKDAJMWDEMMAoGA1UECwwD
RGV2MREwDwYDVQQDDAhtYVh1RmVuZzEfMB0GCSqGSIb3DQEJARYQNTI0OTE1Mzc5
QHFxLmNvbTAeFw0yMzA3MTcwOTIyMDdaFw0yNDA3MTYwOTIyMDdaMHMxCzAJBgNV
BAYTAkNOMQswCQYDVQQIDAJHRDELMAkGA1UECgwCTFgxDDAKBgNVBAsMA0RldjEb
MBkGA1UEAwwSYjJjLWg1LndlZ29jYXJlLmNuMR8wHQYJKoZIhvcNAQkBFhA1MjQ5
MTUzNzlAcXEuY29tMIIBIjANBgkqhkiG9w0BAQEFAAOCAQ8AMIIBCgKCAQEA8aAw
3Luj9TyVmkHchDCwSANII4MK14jtwp4kqBICfYtden0kT7Gzs4O2xWDSx/qEtx7K
rEoB7zJzjon9DF5/s05hXqlD+3EjX2oBUdP4pR6/FtlAljV+dm10Ik1RZTzCPchT
vHm7tIW71ZXONZ4AR+ek1UE5y3b3e5ateKB3UlFsUkE0LDGf7CVvkLZfuMGG90Pi
2qBr3kGweEYAVHbhCUTpF8euE/PeU+ZSD9GqKltuhbK37q9hmtALfHKhwSHZfhjZ
0ogSXVAhSheYWXJMs/FDRY5B3+6qP1MYEpNkzL8o3pyr7uQfsh7O1bFSPhDLWnwM
fWr/Gq2AUQTftl1dywIDAQABo3sweTAJBgNVHRMEAjAAMCwGCWCGSAGG+EIBDQQf
Fh1PcGVuU1NMIEdlbmVyYXRlZCBDZXJ0aWZpY2F0ZTAdBgNVHQ4EFgQUwWZXCx6g
hTpUwew9F7PYLAo/A3MwHwYDVR0jBBgwFoAUghJOGpvAN/SOsxX61RmYfnnY+Now
DQYJKoZIhvcNAQELBQADggEBAFNSoQZUNctrrx+41upZyuVTOokuP7HW+9h6xjwj
HgTV2EGCXHlj1/Wh2LaF2BBV+wMIhMRfBpOSxnpYhQI8ebt1jd1lQE02ZI1bs/5K
9e5IRh3l0TstR5d6fPSkKE7Jsc40OKJ1OxlZFOH0Q5mQE45t0XrzM+TDYUugMLVc
dHGXMVrWQ3OqUkPAOGv5O2zvaa3yIHMqC35Wqw1NIqzcBBvCzsowHRpKUidfRSoC
nyK/oZr7EAl02w/pZgOYKF1FUvZfFfvgEeyDxPiVtS5Q1so51jH6bP2fy1pzpPnf
4Lb3SdIN2UlE9QxJoKMaGrAE6kMlhpypFGm/IScZ1rYiDFo=
-----END CERTIFICATE-----
