Certificate:
    Data:
        Version: 3 (0x2)
        Serial Number: 4 (0x4)
        Signature Algorithm: sha256WithRSAEncryption
        Issuer: C=CN, ST=GD, L=GZ, O=LX, OU=Dev, CN=maXuFeng/emailAddress=524915379@qq.com
        Validity
            Not Before: Jul 21 03:24:13 2023 GMT
            Not After : Jul 20 03:24:13 2024 GMT
        Subject: C=CN, ST=GD, O=LX, OU=Dev, CN=b2c.wegocare.cn/emailAddress=524915379@qq.com
        Subject Public Key Info:
            Public Key Algorithm: rsaEncryption
                RSA Public-Key: (2048 bit)
                Modulus:
                    00:d5:72:f4:97:9c:42:fc:c6:c4:70:b1:16:fd:d0:
                    0a:bf:c8:ef:26:eb:43:ad:db:d5:53:e1:1a:17:f6:
                    10:ca:9f:33:d9:4f:b6:be:67:82:6f:81:ca:5d:dc:
                    56:e2:8f:c4:27:85:47:95:ca:c2:b0:4e:db:1c:bd:
                    56:9f:64:ee:1b:41:4f:99:47:be:a1:83:2b:e0:5d:
                    e6:e1:b7:be:28:fa:ce:94:c4:47:ca:63:e9:df:3f:
                    ae:80:13:88:17:15:0e:96:eb:86:1a:6c:5d:9e:b3:
                    43:a5:2d:6c:61:9d:80:83:86:02:c7:87:28:59:19:
                    15:6d:5b:84:bd:8c:4b:69:91:b5:d2:09:26:2c:ad:
                    ab:c6:65:39:ee:6d:f2:80:e9:a2:8f:9f:de:c2:e1:
                    68:3c:58:2b:cf:b0:ec:62:65:c8:8d:26:f8:42:25:
                    4d:e4:fe:1a:e2:fa:95:0b:aa:32:d4:d3:48:2d:33:
                    fa:02:e3:7e:ba:51:af:6e:08:72:5c:88:c2:95:0b:
                    01:12:69:73:a6:e9:e4:90:a5:32:dd:4f:91:7e:88:
                    de:e9:b2:40:cc:35:e6:65:3f:12:5d:d3:42:4f:03:
                    5c:ed:91:7f:67:e0:b4:fe:d9:d3:c4:0b:ab:d2:3a:
                    5f:f7:62:cb:a1:6d:c8:93:bf:3a:07:b1:98:1d:98:
                    c1:b5
                Exponent: 65537 (0x10001)
        X509v3 extensions:
            X509v3 Basic Constraints: 
                CA:FALSE
            Netscape Comment: 
                OpenSSL Generated Certificate
            X509v3 Subject Key Identifier: 
                A3:9F:52:18:32:84:5D:ED:1E:54:CC:65:C2:FC:14:1D:92:67:22:54
            X509v3 Authority Key Identifier: 
                keyid:82:12:4E:1A:9B:C0:37:F4:8E:B3:15:FA:D5:19:98:7E:79:D8:F8:DA

    Signature Algorithm: sha256WithRSAEncryption
         7d:33:7d:1c:ad:0a:78:7a:a5:27:37:1d:c1:0e:9e:9a:8b:6c:
         ff:24:80:2b:de:48:20:0c:ec:bd:56:e9:d9:e5:d5:06:be:2b:
         03:fc:ed:29:5b:25:97:1b:4b:d1:0e:57:c5:fd:ea:fc:8b:3b:
         67:14:82:30:fb:28:50:6e:1d:c6:bd:0b:c7:f5:69:09:88:bc:
         39:cb:e2:12:81:b3:6a:a2:78:13:69:16:7c:45:53:61:fe:c4:
         dc:da:ce:89:9b:b1:f0:a0:af:b4:7f:5a:30:df:d8:5e:b3:c4:
         9d:44:75:3a:e7:25:89:5e:87:d5:ad:be:6b:35:e4:00:3a:7f:
         d7:a9:ec:3f:68:b6:d0:14:6e:c6:2d:4f:5d:eb:da:32:4a:a7:
         ea:67:5f:ed:2a:2d:fe:ce:07:6c:b5:58:34:b8:96:3a:e8:8f:
         cd:a5:1c:b9:cd:fc:dc:59:e8:12:7f:2a:01:67:d4:1c:46:3c:
         f7:38:95:66:13:85:6c:eb:af:78:4b:d4:94:9e:60:38:d4:27:
         24:ab:41:a2:64:70:12:97:bc:5e:c8:b2:23:ee:90:1b:d1:32:
         2a:32:93:a3:b2:5b:ea:24:a1:8a:8d:a9:af:33:ab:74:9a:b9:
         35:a6:f5:c5:d6:cb:09:76:dd:96:51:f2:0c:3f:1d:97:21:7b:
         54:c8:45:e2
-----BEGIN CERTIFICATE-----
MIID3DCCAsSgAwIBAgIBBDANBgkqhkiG9w0BAQsFADB2MQswCQYDVQQGEwJDTjEL
MAkGA1UECAwCR0QxCzAJBgNVBAcMAkdaMQswCQYDVQQKDAJMWDEMMAoGA1UECwwD
RGV2MREwDwYDVQQDDAhtYVh1RmVuZzEfMB0GCSqGSIb3DQEJARYQNTI0OTE1Mzc5
QHFxLmNvbTAeFw0yMzA3MjEwMzI0MTNaFw0yNDA3MjAwMzI0MTNaMHAxCzAJBgNV
BAYTAkNOMQswCQYDVQQIDAJHRDELMAkGA1UECgwCTFgxDDAKBgNVBAsMA0RldjEY
MBYGA1UEAwwPYjJjLndlZ29jYXJlLmNuMR8wHQYJKoZIhvcNAQkBFhA1MjQ5MTUz
NzlAcXEuY29tMIIBIjANBgkqhkiG9w0BAQEFAAOCAQ8AMIIBCgKCAQEA1XL0l5xC
/MbEcLEW/dAKv8jvJutDrdvVU+EaF/YQyp8z2U+2vmeCb4HKXdxW4o/EJ4VHlcrC
sE7bHL1Wn2TuG0FPmUe+oYMr4F3m4be+KPrOlMRHymPp3z+ugBOIFxUOluuGGmxd
nrNDpS1sYZ2Ag4YCx4coWRkVbVuEvYxLaZG10gkmLK2rxmU57m3ygOmij5/ewuFo
PFgrz7DsYmXIjSb4QiVN5P4a4vqVC6oy1NNILTP6AuN+ulGvbghyXIjClQsBEmlz
punkkKUy3U+Rfoje6bJAzDXmZT8SXdNCTwNc7ZF/Z+C0/tnTxAur0jpf92LLoW3I
k786B7GYHZjBtQIDAQABo3sweTAJBgNVHRMEAjAAMCwGCWCGSAGG+EIBDQQfFh1P
cGVuU1NMIEdlbmVyYXRlZCBDZXJ0aWZpY2F0ZTAdBgNVHQ4EFgQUo59SGDKEXe0e
VMxlwvwUHZJnIlQwHwYDVR0jBBgwFoAUghJOGpvAN/SOsxX61RmYfnnY+NowDQYJ
KoZIhvcNAQELBQADggEBAH0zfRytCnh6pSc3HcEOnpqLbP8kgCveSCAM7L1W6dnl
1Qa+KwP87SlbJZcbS9EOV8X96vyLO2cUgjD7KFBuHca9C8f1aQmIvDnL4hKBs2qi
eBNpFnxFU2H+xNzazombsfCgr7R/WjDf2F6zxJ1EdTrnJYleh9Wtvms15AA6f9ep
7D9ottAUbsYtT13r2jJKp+pnX+0qLf7OB2y1WDS4ljroj82lHLnN/NxZ6BJ/KgFn
1BxGPPc4lWYThWzrr3hL1JSeYDjUJySrQaJkcBKXvF7IsiPukBvRMioyk6OyW+ok
oYqNqa8zq3SauTWm9cXWywl23ZZR8gw/HZche1TIReI=
-----END CERTIFICATE-----
